; Function Attrs: mustprogress uwtable
define internal noundef zeroext i1 @"_ZNSt17_Function_handlerIFbPKN3nla3nexEEZNS0_7grobner19add_horner_conflictERKN2dd6solver8equationEE3$_0E9_M_invokeERKSt9_Any_dataOS3_"(ptr noundef nonnull readonly align 8 captures(none) dereferenceable(16) %0, ptr noundef nonnull readonly align 8 captures(none) dereferenceable(8) %1) #4 align 2 {
  %.val = load ptr, ptr %0, align 8, !tbaa !836
  %3 = getelementptr inbounds nuw i8, ptr %0, i64 8
  %.val2 = load ptr, ptr %3, align 8, !tbaa !838
  %.val3 = load ptr, ptr %1, align 8, !tbaa !433
  %.val.val = load ptr, ptr %.val, align 8, !tbaa !8
  %4 = getelementptr inbounds nuw i8, ptr %.val.val, i64 1112
  %5 = tail call noundef zeroext i1 @_ZN3nla9intervals9check_nexEPKNS_3nexEPN18dependency_managerIN25scoped_dependency_managerIjE6configEE10dependencyE(ptr noundef nonnull align 8 dereferenceable(1432) %4, ptr noundef %.val3, ptr noundef %.val2)
  ret i1 %5
}